target datalayout = "e-m:e-p270:32:32-p271:32:32-p272:64:64-i64:64-i128:128-f80:128-n8:16:32:64-S128"
target triple = "x86_64-pc-linux-gnu"

%struct.FunctionCallInfoBaseData = type { ptr, ptr, ptr, i32, i8, i16, [0 x %struct.NullableDatum] }
%struct.NullableDatum = type { i64, i8 }
%struct.OSAPerGroupState = type { ptr, ptr, ptr, i64, i8 }
%union.anon = type { i64 }

@.str = private unnamed_addr constant [43 x i8] c"percentile value %g is not between 0 and 1\00", align 1
@.str.1 = private unnamed_addr constant [17 x i8] c"orderedsetaggs.c\00", align 1
@__func__.percentile_cont_final_common = private unnamed_addr constant [29 x i8] c"percentile_cont_final_common\00", align 1
@.str.8 = private unnamed_addr constant [31 x i8] c"missing row in percentile_cont\00", align 1

; Function Attrs: inlinehint nounwind uwtable
define internal i64 @DatumGetInt64(i64 noundef %0) #2 {
  %2 = alloca i64, align 8
  store i64 %0, ptr %2, align 8
  %3 = load i64, ptr %2, align 8
  ret i64 %3
}

; Function Attrs: inlinehint nounwind uwtable
define internal ptr @DatumGetPointer(i64 noundef %0) #2 {
  %2 = alloca i64, align 8
  store i64 %0, ptr %2, align 8
  %3 = load i64, ptr %2, align 8
  %4 = inttoptr i64 %3 to ptr
  ret ptr %4
}

; Function Attrs: inlinehint nounwind uwtable
define internal double @DatumGetFloat8(i64 noundef %0) #2 {
  %2 = alloca i64, align 8
  %3 = alloca %union.anon, align 8
  store i64 %0, ptr %2, align 8
  call void @llvm.lifetime.start.p0(i64 8, ptr %3) #8
  %4 = load i64, ptr %2, align 8
  %5 = call i64 @DatumGetInt64(i64 noundef %4)
  store i64 %5, ptr %3, align 8
  %6 = load double, ptr %3, align 8
  call void @llvm.lifetime.end.p0(i64 8, ptr %3) #8
  ret double %6
}

; Function Attrs: nounwind uwtable
define internal i64 @percentile_cont_final_common(ptr noundef %0, i32 noundef %1, ptr noundef %2) #0 {
  %4 = alloca i64, align 8
  %5 = alloca ptr, align 8
  %6 = alloca i32, align 4
  %7 = alloca ptr, align 8
  %8 = alloca ptr, align 8
  %9 = alloca double, align 8
  %10 = alloca i64, align 8
  %11 = alloca i64, align 8
  %12 = alloca i64, align 8
  %13 = alloca i64, align 8
  %14 = alloca i64, align 8
  %15 = alloca double, align 8
  %16 = alloca i8, align 1
  %17 = alloca i32, align 4
  store ptr %0, ptr %5, align 8
  store i32 %1, ptr %6, align 4
  store ptr %2, ptr %7, align 8
  call void @llvm.lifetime.start.p0(i64 8, ptr %8) #8
  call void @llvm.lifetime.start.p0(i64 8, ptr %9) #8
  call void @llvm.lifetime.start.p0(i64 8, ptr %10) #8
  store i64 0, ptr %10, align 8
  call void @llvm.lifetime.start.p0(i64 8, ptr %11) #8
  store i64 0, ptr %11, align 8
  call void @llvm.lifetime.start.p0(i64 8, ptr %12) #8
  call void @llvm.lifetime.start.p0(i64 8, ptr %13) #8
  call void @llvm.lifetime.start.p0(i64 8, ptr %14) #8
  call void @llvm.lifetime.start.p0(i64 8, ptr %15) #8
  call void @llvm.lifetime.start.p0(i64 1, ptr %16) #8
  %18 = load ptr, ptr %5, align 8
  %19 = getelementptr inbounds nuw %struct.FunctionCallInfoBaseData, ptr %18, i32 0, i32 6
  %20 = getelementptr inbounds [0 x %struct.NullableDatum], ptr %19, i64 0, i64 1
  %21 = getelementptr inbounds nuw %struct.NullableDatum, ptr %20, i32 0, i32 1
  %22 = load i8, ptr %21, align 8, !range !4, !noundef !5
  %23 = trunc i8 %22 to i1
  br i1 %23, label %24, label %30

24:                                               ; preds = %3
  br label %25

25:                                               ; preds = %24
  %26 = load ptr, ptr %5, align 8
  %27 = getelementptr inbounds nuw %struct.FunctionCallInfoBaseData, ptr %26, i32 0, i32 4
  store i8 1, ptr %27, align 4
  store i64 0, ptr %4, align 8
  store i32 1, ptr %17, align 4
  br label %212

28:                                               ; No predecessors!
  br label %29

29:                                               ; preds = %28
  br label %30

30:                                               ; preds = %29, %3
  %31 = load ptr, ptr %5, align 8
  %32 = getelementptr inbounds nuw %struct.FunctionCallInfoBaseData, ptr %31, i32 0, i32 6
  %33 = getelementptr inbounds [0 x %struct.NullableDatum], ptr %32, i64 0, i64 1
  %34 = getelementptr inbounds nuw %struct.NullableDatum, ptr %33, i32 0, i32 0
  %35 = load i64, ptr %34, align 8
  %36 = call double @DatumGetFloat8(i64 noundef %35)
  store double %36, ptr %9, align 8
  %37 = load double, ptr %9, align 8
  %38 = fcmp olt double %37, 0.000000e+00
  br i1 %38, label %45, label %39

39:                                               ; preds = %30
  %40 = load double, ptr %9, align 8
  %41 = fcmp ogt double %40, 1.000000e+00
  br i1 %41, label %45, label %42

42:                                               ; preds = %39
  %43 = load double, ptr %9, align 8
  %44 = call i1 @llvm.is.fpclass.f64(double %43, i32 3)
  br i1 %44, label %45, label %58

45:                                               ; preds = %42, %39, %30
  br label %46

46:                                               ; preds = %45
  br i1 true, label %47, label %49

47:                                               ; preds = %46
  %48 = call zeroext i1 @errstart_cold(i32 noundef 21, ptr noundef null) #9
  br i1 %48, label %51, label %55

49:                                               ; preds = %46
  %50 = call zeroext i1 @errstart(i32 noundef 21, ptr noundef null)
  br i1 %50, label %51, label %55

51:                                               ; preds = %49, %47
  %52 = call i32 @errcode(i32 noundef 50331778)
  %53 = load double, ptr %9, align 8
  %54 = call i32 (ptr, ...) @errmsg(ptr noundef @.str, double noundef %53)
  call void @errfinish(ptr noundef @.str.1, i32 noundef 552, ptr noundef @__func__.percentile_cont_final_common)
  br label %55

55:                                               ; preds = %51, %49, %47
  unreachable

56:                                               ; No predecessors!
  br label %57

57:                                               ; preds = %56
  br label %58

58:                                               ; preds = %57, %42
  %59 = load ptr, ptr %5, align 8
  %60 = getelementptr inbounds nuw %struct.FunctionCallInfoBaseData, ptr %59, i32 0, i32 6
  %61 = getelementptr inbounds [0 x %struct.NullableDatum], ptr %60, i64 0, i64 0
  %62 = getelementptr inbounds nuw %struct.NullableDatum, ptr %61, i32 0, i32 1
  %63 = load i8, ptr %62, align 8, !range !4, !noundef !5
  %64 = trunc i8 %63 to i1
  br i1 %64, label %65, label %71

65:                                               ; preds = %58
  br label %66

66:                                               ; preds = %65
  %67 = load ptr, ptr %5, align 8
  %68 = getelementptr inbounds nuw %struct.FunctionCallInfoBaseData, ptr %67, i32 0, i32 4
  store i8 1, ptr %68, align 4
  store i64 0, ptr %4, align 8
  store i32 1, ptr %17, align 4
  br label %212

69:                                               ; No predecessors!
  br label %70

70:                                               ; preds = %69
  br label %71

71:                                               ; preds = %70, %58
  %72 = load ptr, ptr %5, align 8
  %73 = getelementptr inbounds nuw %struct.FunctionCallInfoBaseData, ptr %72, i32 0, i32 6
  %74 = getelementptr inbounds [0 x %struct.NullableDatum], ptr %73, i64 0, i64 0
  %75 = getelementptr inbounds nuw %struct.NullableDatum, ptr %74, i32 0, i32 0
  %76 = load i64, ptr %75, align 8
  %77 = call ptr @DatumGetPointer(i64 noundef %76)
  store ptr %77, ptr %8, align 8
  %78 = load ptr, ptr %8, align 8
  %79 = getelementptr inbounds nuw %struct.OSAPerGroupState, ptr %78, i32 0, i32 3
  %80 = load i64, ptr %79, align 8
  %81 = icmp eq i64 %80, 0
  br i1 %81, label %82, label %88

82:                                               ; preds = %71
  br label %83

83:                                               ; preds = %82
  %84 = load ptr, ptr %5, align 8
  %85 = getelementptr inbounds nuw %struct.FunctionCallInfoBaseData, ptr %84, i32 0, i32 4
  store i8 1, ptr %85, align 4
  store i64 0, ptr %4, align 8
  store i32 1, ptr %17, align 4
  br label %212

86:                                               ; No predecessors!
  br label %87

87:                                               ; preds = %86
  br label %88

88:                                               ; preds = %87, %71
  %89 = load ptr, ptr %8, align 8
  %90 = getelementptr inbounds nuw %struct.OSAPerGroupState, ptr %89, i32 0, i32 4
  %91 = load i8, ptr %90, align 8, !range !4, !noundef !5
  %92 = trunc i8 %91 to i1
  br i1 %92, label %99, label %93

93:                                               ; preds = %88
  %94 = load ptr, ptr %8, align 8
  %95 = getelementptr inbounds nuw %struct.OSAPerGroupState, ptr %94, i32 0, i32 2
  %96 = load ptr, ptr %95, align 8
  call void @tuplesort_performsort(ptr noundef %96)
  %97 = load ptr, ptr %8, align 8
  %98 = getelementptr inbounds nuw %struct.OSAPerGroupState, ptr %97, i32 0, i32 4
  store i8 1, ptr %98, align 8
  br label %103

99:                                               ; preds = %88
  %100 = load ptr, ptr %8, align 8
  %101 = getelementptr inbounds nuw %struct.OSAPerGroupState, ptr %100, i32 0, i32 2
  %102 = load ptr, ptr %101, align 8
  call void @tuplesort_rescan(ptr noundef %102)
  br label %103

103:                                              ; preds = %99, %93
  %104 = load double, ptr %9, align 8
  %105 = load ptr, ptr %8, align 8
  %106 = getelementptr inbounds nuw %struct.OSAPerGroupState, ptr %105, i32 0, i32 3
  %107 = load i64, ptr %106, align 8
  %108 = sub i64 %107, 1
  %109 = sitofp i64 %108 to double
  %110 = fmul double %104, %109
  %111 = call double @llvm.floor.f64(double %110)
  %112 = fptosi double %111 to i64
  store i64 %112, ptr %10, align 8
  %113 = load double, ptr %9, align 8
  %114 = load ptr, ptr %8, align 8
  %115 = getelementptr inbounds nuw %struct.OSAPerGroupState, ptr %114, i32 0, i32 3
  %116 = load i64, ptr %115, align 8
  %117 = sub i64 %116, 1
  %118 = sitofp i64 %117 to double
  %119 = fmul double %113, %118
  %120 = call double @llvm.ceil.f64(double %119)
  %121 = fptosi double %120 to i64
  store i64 %121, ptr %11, align 8
  %122 = load ptr, ptr %8, align 8
  %123 = getelementptr inbounds nuw %struct.OSAPerGroupState, ptr %122, i32 0, i32 2
  %124 = load ptr, ptr %123, align 8
  %125 = load i64, ptr %10, align 8
  %126 = call zeroext i1 @tuplesort_skiptuples(ptr noundef %124, i64 noundef %125, i1 noundef zeroext true)
  br i1 %126, label %138, label %127

127:                                              ; preds = %103
  br label %128

128:                                              ; preds = %127
  br i1 true, label %129, label %131

129:                                              ; preds = %128
  %130 = call zeroext i1 @errstart_cold(i32 noundef 21, ptr noundef null) #9
  br i1 %130, label %133, label %135

131:                                              ; preds = %128
  %132 = call zeroext i1 @errstart(i32 noundef 21, ptr noundef null)
  br i1 %132, label %133, label %135

133:                                              ; preds = %131, %129
  %134 = call i32 (ptr, ...) @errmsg_internal(ptr noundef @.str.8)
  call void @errfinish(ptr noundef @.str.1, i32 noundef 581, ptr noundef @__func__.percentile_cont_final_common)
  br label %135

135:                                              ; preds = %133, %131, %129
  unreachable

136:                                              ; No predecessors!
  br label %137

137:                                              ; preds = %136
  br label %138

138:                                              ; preds = %137, %103
  %139 = load ptr, ptr %8, align 8
  %140 = getelementptr inbounds nuw %struct.OSAPerGroupState, ptr %139, i32 0, i32 2
  %141 = load ptr, ptr %140, align 8
  %142 = call zeroext i1 @tuplesort_getdatum(ptr noundef %141, i1 noundef zeroext true, i1 noundef zeroext true, ptr noundef %13, ptr noundef %16, ptr noundef null)
  br i1 %142, label %154, label %143

143:                                              ; preds = %138
  br label %144

144:                                              ; preds = %143
  br i1 true, label %145, label %147

145:                                              ; preds = %144
  %146 = call zeroext i1 @errstart_cold(i32 noundef 21, ptr noundef null) #9
  br i1 %146, label %149, label %151

147:                                              ; preds = %144
  %148 = call zeroext i1 @errstart(i32 noundef 21, ptr noundef null)
  br i1 %148, label %149, label %151

149:                                              ; preds = %147, %145
  %150 = call i32 (ptr, ...) @errmsg_internal(ptr noundef @.str.8)
  call void @errfinish(ptr noundef @.str.1, i32 noundef 585, ptr noundef @__func__.percentile_cont_final_common)
  br label %151

151:                                              ; preds = %149, %147, %145
  unreachable

152:                                              ; No predecessors!
  br label %153

153:                                              ; preds = %152
  br label %154

154:                                              ; preds = %153, %138
  %155 = load i8, ptr %16, align 1, !range !4, !noundef !5
  %156 = trunc i8 %155 to i1
  br i1 %156, label %157, label %163

157:                                              ; preds = %154
  br label %158

158:                                              ; preds = %157
  %159 = load ptr, ptr %5, align 8
  %160 = getelementptr inbounds nuw %struct.FunctionCallInfoBaseData, ptr %159, i32 0, i32 4
  store i8 1, ptr %160, align 4
  store i64 0, ptr %4, align 8
  store i32 1, ptr %17, align 4
  br label %212

161:                                              ; No predecessors!
  br label %162

162:                                              ; preds = %161
  br label %163

163:                                              ; preds = %162, %154
  %164 = load i64, ptr %10, align 8
  %165 = load i64, ptr %11, align 8
  %166 = icmp eq i64 %164, %165
  br i1 %166, label %167, label %169

167:                                              ; preds = %163
  %168 = load i64, ptr %13, align 8
  store i64 %168, ptr %12, align 8
  br label %210

169:                                              ; preds = %163
  %170 = load ptr, ptr %8, align 8
  %171 = getelementptr inbounds nuw %struct.OSAPerGroupState, ptr %170, i32 0, i32 2
  %172 = load ptr, ptr %171, align 8
  %173 = call zeroext i1 @tuplesort_getdatum(ptr noundef %172, i1 noundef zeroext true, i1 noundef zeroext true, ptr noundef %14, ptr noundef %16, ptr noundef null)
  br i1 %173, label %185, label %174

174:                                              ; preds = %169
  br label %175

175:                                              ; preds = %174
  br i1 true, label %176, label %178

176:                                              ; preds = %175
  %177 = call zeroext i1 @errstart_cold(i32 noundef 21, ptr noundef null) #9
  br i1 %177, label %180, label %182

178:                                              ; preds = %175
  %179 = call zeroext i1 @errstart(i32 noundef 21, ptr noundef null)
  br i1 %179, label %180, label %182

180:                                              ; preds = %178, %176
  %181 = call i32 (ptr, ...) @errmsg_internal(ptr noundef @.str.8)
  call void @errfinish(ptr noundef @.str.1, i32 noundef 597, ptr noundef @__func__.percentile_cont_final_common)
  br label %182

182:                                              ; preds = %180, %178, %176
  unreachable

183:                                              ; No predecessors!
  br label %184

184:                                              ; preds = %183
  br label %185

185:                                              ; preds = %184, %169
  %186 = load i8, ptr %16, align 1, !range !4, !noundef !5
  %187 = trunc i8 %186 to i1
  br i1 %187, label %188, label %194

188:                                              ; preds = %185
  br label %189

189:                                              ; preds = %188
  %190 = load ptr, ptr %5, align 8
  %191 = getelementptr inbounds nuw %struct.FunctionCallInfoBaseData, ptr %190, i32 0, i32 4
  store i8 1, ptr %191, align 4
  store i64 0, ptr %4, align 8
  store i32 1, ptr %17, align 4
  br label %212

192:                                              ; No predecessors!
  br label %193

193:                                              ; preds = %192
  br label %194

194:                                              ; preds = %193, %185
  %195 = load double, ptr %9, align 8
  %196 = load ptr, ptr %8, align 8
  %197 = getelementptr inbounds nuw %struct.OSAPerGroupState, ptr %196, i32 0, i32 3
  %198 = load i64, ptr %197, align 8
  %199 = sub i64 %198, 1
  %200 = sitofp i64 %199 to double
  %201 = load i64, ptr %10, align 8
  %202 = sitofp i64 %201 to double
  %203 = fneg double %202
  %204 = call double @llvm.fmuladd.f64(double %195, double %200, double %203)
  store double %204, ptr %15, align 8
  %205 = load ptr, ptr %7, align 8
  %206 = load i64, ptr %13, align 8
  %207 = load i64, ptr %14, align 8
  %208 = load double, ptr %15, align 8
  %209 = call i64 %205(i64 noundef %206, i64 noundef %207, double noundef %208)
  store i64 %209, ptr %12, align 8
  br label %210

210:                                              ; preds = %194, %167
  %211 = load i64, ptr %12, align 8
  store i64 %211, ptr %4, align 8
  store i32 1, ptr %17, align 4
  br label %212

212:                                              ; preds = %210, %189, %158, %83, %66, %25
  call void @llvm.lifetime.end.p0(i64 1, ptr %16) #8
  call void @llvm.lifetime.end.p0(i64 8, ptr %15) #8
  call void @llvm.lifetime.end.p0(i64 8, ptr %14) #8
  call void @llvm.lifetime.end.p0(i64 8, ptr %13) #8
  call void @llvm.lifetime.end.p0(i64 8, ptr %12) #8
  call void @llvm.lifetime.end.p0(i64 8, ptr %11) #8
  call void @llvm.lifetime.end.p0(i64 8, ptr %10) #8
  call void @llvm.lifetime.end.p0(i64 8, ptr %9) #8
  call void @llvm.lifetime.end.p0(i64 8, ptr %8) #8
  %213 = load i64, ptr %4, align 8
  ret i64 %213
}