; Function Attrs: nounwind uwtable
define internal fastcc i64 @percentile_cont_final_common(ptr noundef captures(none) %0, ptr noundef readonly captures(none) %1) unnamed_addr #0 {
  %3 = alloca i64, align 8
  %4 = alloca i64, align 8
  %5 = alloca i8, align 1
  call void @llvm.lifetime.start.p0(i64 8, ptr nonnull %3) #10
  call void @llvm.lifetime.start.p0(i64 8, ptr nonnull %4) #10
  call void @llvm.lifetime.start.p0(i64 1, ptr nonnull %5) #10
  %6 = getelementptr inbounds nuw i8, ptr %0, i64 32
  %7 = getelementptr inbounds nuw i8, ptr %0, i64 56
  %8 = load i8, ptr %7, align 8, !range !4, !noundef !5
  %9 = trunc nuw i8 %8 to i1
  br i1 %9, label %10, label %12

10:                                               ; preds = %2
  %11 = getelementptr inbounds nuw i8, ptr %0, i64 28
  store i8 1, ptr %11, align 4
  br label %94

12:                                               ; preds = %2
  %13 = getelementptr inbounds nuw i8, ptr %0, i64 48
  %14 = load double, ptr %13, align 8
  %15 = fcmp ogt double %14, 1.000000e+00
  %16 = fcmp ult double %14, 0.000000e+00
  %or.cond38 = or i1 %16, %15
  br i1 %or.cond38, label %17, label %21

17:                                               ; preds = %12
  %18 = tail call zeroext i1 @errstart_cold(i32 noundef 21, ptr noundef null) #11
  tail call void @llvm.assume(i1 %18)
  %19 = tail call i32 @errcode(i32 noundef 50331778) #10
  %20 = tail call i32 (ptr, ...) @errmsg(ptr noundef nonnull @.str, double noundef %14) #10
  tail call void @errfinish(ptr noundef nonnull @.str.1, i32 noundef 552, ptr noundef nonnull @__func__.percentile_cont_final_common) #10
  unreachable

21:                                               ; preds = %12
  %22 = getelementptr inbounds nuw i8, ptr %0, i64 40
  %23 = load i8, ptr %22, align 8, !range !4, !noundef !5
  %24 = trunc nuw i8 %23 to i1
  br i1 %24, label %25, label %27

25:                                               ; preds = %21
  %26 = getelementptr inbounds nuw i8, ptr %0, i64 28
  store i8 1, ptr %26, align 4
  br label %94

27:                                               ; preds = %21
  %28 = load i64, ptr %6, align 8
  %29 = inttoptr i64 %28 to ptr
  %30 = getelementptr inbounds nuw i8, ptr %29, i64 24
  %31 = load i64, ptr %30, align 8
  %32 = icmp eq i64 %31, 0
  br i1 %32, label %33, label %35

33:                                               ; preds = %27
  %34 = getelementptr inbounds nuw i8, ptr %0, i64 28
  store i8 1, ptr %34, align 4
  br label %94

35:                                               ; preds = %27
  %36 = getelementptr inbounds nuw i8, ptr %29, i64 32
  %37 = load i8, ptr %36, align 8, !range !4, !noundef !5
  %38 = trunc nuw i8 %37 to i1
  %39 = getelementptr inbounds nuw i8, ptr %29, i64 16
  %40 = load ptr, ptr %39, align 8
  br i1 %38, label %42, label %41

41:                                               ; preds = %35
  tail call void @tuplesort_performsort(ptr noundef %40) #10
  store i8 1, ptr %36, align 8
  br label %43

42:                                               ; preds = %35
  tail call void @tuplesort_rescan(ptr noundef %40) #10
  br label %43

43:                                               ; preds = %42, %41
  %44 = load i64, ptr %30, align 8
  %45 = add i64 %44, -1
  %46 = sitofp i64 %45 to double
  %47 = fmul double %14, %46
  %48 = tail call double @llvm.floor.f64(double %47)
  %49 = fptosi double %48 to i64
  %50 = tail call double @llvm.ceil.f64(double %47)
  %51 = fptosi double %50 to i64
  %52 = getelementptr inbounds nuw i8, ptr %29, i64 16
  %53 = load ptr, ptr %52, align 8
  %54 = tail call zeroext i1 @tuplesort_skiptuples(ptr noundef %53, i64 noundef %49, i1 noundef zeroext true) #10
  br i1 %54, label %58, label %55

55:                                               ; preds = %43
  %56 = tail call zeroext i1 @errstart_cold(i32 noundef 21, ptr noundef null) #11
  tail call void @llvm.assume(i1 %56)
  %57 = tail call i32 (ptr, ...) @errmsg_internal(ptr noundef nonnull @.str.8) #10
  tail call void @errfinish(ptr noundef nonnull @.str.1, i32 noundef 581, ptr noundef nonnull @__func__.percentile_cont_final_common) #10
  unreachable

58:                                               ; preds = %43
  %59 = load ptr, ptr %52, align 8
  %60 = call zeroext i1 @tuplesort_getdatum(ptr noundef %59, i1 noundef zeroext true, i1 noundef zeroext true, ptr noundef nonnull %3, ptr noundef nonnull %5, ptr noundef null) #10
  br i1 %60, label %64, label %61

61:                                               ; preds = %58
  %62 = call zeroext i1 @errstart_cold(i32 noundef 21, ptr noundef null) #11
  call void @llvm.assume(i1 %62)
  %63 = call i32 (ptr, ...) @errmsg_internal(ptr noundef nonnull @.str.8) #10
  call void @errfinish(ptr noundef nonnull @.str.1, i32 noundef 585, ptr noundef nonnull @__func__.percentile_cont_final_common) #10
  unreachable

64:                                               ; preds = %58
  %65 = load i8, ptr %5, align 1, !range !4, !noundef !5
  %66 = trunc nuw i8 %65 to i1
  br i1 %66, label %67, label %69

67:                                               ; preds = %64
  %68 = getelementptr inbounds nuw i8, ptr %0, i64 28
  store i8 1, ptr %68, align 4
  br label %94

69:                                               ; preds = %64
  %70 = icmp eq i64 %49, %51
  br i1 %70, label %71, label %73

71:                                               ; preds = %69
  %72 = load i64, ptr %3, align 8
  br label %94

73:                                               ; preds = %69
  %74 = load ptr, ptr %52, align 8
  %75 = call zeroext i1 @tuplesort_getdatum(ptr noundef %74, i1 noundef zeroext true, i1 noundef zeroext true, ptr noundef nonnull %4, ptr noundef nonnull %5, ptr noundef null) #10
  br i1 %75, label %79, label %76

76:                                               ; preds = %73
  %77 = call zeroext i1 @errstart_cold(i32 noundef 21, ptr noundef null) #11
  call void @llvm.assume(i1 %77)
  %78 = call i32 (ptr, ...) @errmsg_internal(ptr noundef nonnull @.str.8) #10
  call void @errfinish(ptr noundef nonnull @.str.1, i32 noundef 597, ptr noundef nonnull @__func__.percentile_cont_final_common) #10
  unreachable

79:                                               ; preds = %73
  %80 = load i8, ptr %5, align 1, !range !4, !noundef !5
  %81 = trunc nuw i8 %80 to i1
  br i1 %81, label %82, label %84

82:                                               ; preds = %79
  %83 = getelementptr inbounds nuw i8, ptr %0, i64 28
  store i8 1, ptr %83, align 4
  br label %94

84:                                               ; preds = %79
  %85 = load i64, ptr %30, align 8
  %86 = add i64 %85, -1
  %87 = sitofp i64 %86 to double
  %88 = sitofp i64 %49 to double
  %89 = fneg double %88
  %90 = call double @llvm.fmuladd.f64(double %14, double %87, double %89)
  %91 = load i64, ptr %3, align 8
  %92 = load i64, ptr %4, align 8
  %93 = call i64 %1(i64 noundef %91, i64 noundef %92, double noundef %90) #10, !callees !9
  br label %94

94:                                               ; preds = %71, %84, %82, %67, %33, %25, %10
  %.0 = phi i64 [ 0, %10 ], [ 0, %25 ], [ 0, %33 ], [ 0, %67 ], [ 0, %82 ], [ %72, %71 ], [ %93, %84 ]
  call void @llvm.lifetime.end.p0(i64 1, ptr nonnull %5) #10
  call void @llvm.lifetime.end.p0(i64 8, ptr nonnull %4) #10
  call void @llvm.lifetime.end.p0(i64 8, ptr nonnull %3) #10
  ret i64 %.0
}